target datalayout = "e-m:e-p270:32:32-p271:32:32-p272:64:64-i64:64-i128:128-f80:128-n8:16:32:64-S128"
target triple = "x86_64-pc-linux-gnu"

%struct.sockaddr_storage = type { i16, [118 x i8], i64 }
%struct.persist_conn_t = type { ptr, i32, i32, i8, ptr, ptr, ptr, i64, i16, i32, i16, i8, i32, i32, ptr, i16, ptr, i64, i32, ptr, %struct.slurm_trigger_callbacks_t, i16 }
%struct.slurm_trigger_callbacks_t = type { ptr, ptr, ptr, ptr, ptr }
%struct.slurm_msg = type { %struct.sockaddr_storage, ptr, i32, i32, i32, i8, i32, i8, i32, ptr, ptr, i32, ptr, ptr, i16, i8, i16, i16, %struct.forward, ptr, %struct.sockaddr_storage, ptr }
%struct.forward = type { %struct.slurm_node_alias_addrs_t, i16, i16, ptr, i32, i16, i16 }
%struct.slurm_node_alias_addrs_t = type { i64, ptr, ptr, i32, ptr }
%struct.accounting_update_msg_t = type { ptr, i16 }

@.str.146 = private unnamed_addr constant [92 x i8] c"slurmdb_send_accounting_update_persist: Unable to open connection to registered cluster %s.\00", align 1
@.str.147 = private unnamed_addr constant [34 x i8] c"update cluster: %s at %s(%hu): %m\00", align 1

; Function Attrs: nounwind uwtable
define dso_local i32 @slurmdb_send_accounting_update_persist(ptr noundef %0, ptr noundef %1) #0 {
  %3 = alloca ptr, align 8
  %4 = alloca ptr, align 8
  %5 = alloca %struct.slurm_msg, align 8
  %6 = alloca %struct.slurm_msg, align 8
  %7 = alloca %struct.accounting_update_msg_t, align 8
  %8 = alloca i32, align 4
  store ptr %0, ptr %3, align 8
  store ptr %1, ptr %4, align 8
  call void @llvm.lifetime.start.p0(i64 424, ptr %5) #10
  call void @llvm.lifetime.start.p0(i64 424, ptr %6) #10
  call void @llvm.lifetime.start.p0(i64 16, ptr %7) #10
  call void @llvm.memset.p0.i64(ptr align 8 %7, i8 0, i64 16, i1 false)
  call void @llvm.lifetime.start.p0(i64 4, ptr %8) #10
  %9 = load ptr, ptr %4, align 8
  %10 = getelementptr inbounds nuw %struct.persist_conn_t, ptr %9, i32 0, i32 9
  %11 = load i32, ptr %10, align 4
  %12 = icmp eq i32 %11, -2
  br i1 %12, label %13, label %25

13:                                               ; preds = %2
  %14 = load ptr, ptr %4, align 8
  %15 = call i32 @slurm_persist_conn_open(ptr noundef %14)
  %16 = icmp ne i32 %15, 0
  br i1 %16, label %17, label %24

17:                                               ; preds = %13
  %18 = load ptr, ptr %4, align 8
  %19 = getelementptr inbounds nuw %struct.persist_conn_t, ptr %18, i32 0, i32 6
  %20 = load ptr, ptr %19, align 8
  %21 = call i32 (ptr, ...) @error(ptr noundef @.str.146, ptr noundef %20)
  %22 = load ptr, ptr %4, align 8
  %23 = getelementptr inbounds nuw %struct.persist_conn_t, ptr %22, i32 0, i32 9
  store i32 -2, ptr %23, align 4
  br label %24

24:                                               ; preds = %17, %13
  br label %25

25:                                               ; preds = %24, %2
  %26 = load ptr, ptr %3, align 8
  %27 = getelementptr inbounds nuw %struct.accounting_update_msg_t, ptr %7, i32 0, i32 0
  store ptr %26, ptr %27, align 8
  %28 = load ptr, ptr %4, align 8
  %29 = getelementptr inbounds nuw %struct.persist_conn_t, ptr %28, i32 0, i32 21
  %30 = load i16, ptr %29, align 8
  %31 = getelementptr inbounds nuw %struct.slurm_msg, ptr %5, i32 0, i32 17
  store i16 %30, ptr %31, align 2
  %32 = getelementptr inbounds nuw %struct.accounting_update_msg_t, ptr %7, i32 0, i32 1
  store i16 %30, ptr %32, align 8
  call void @slurm_msg_t_init(ptr noundef %5)
  %33 = getelementptr inbounds nuw %struct.slurm_msg, ptr %5, i32 0, i32 16
  store i16 10001, ptr %33, align 4
  %34 = load ptr, ptr %4, align 8
  %35 = getelementptr inbounds nuw %struct.slurm_msg, ptr %5, i32 0, i32 10
  store ptr %34, ptr %35, align 8
  %36 = getelementptr inbounds nuw %struct.slurm_msg, ptr %5, i32 0, i32 13
  store ptr %7, ptr %36, align 8
  %37 = call i32 @slurm_send_recv_msg(i32 noundef 0, ptr noundef %5, ptr noundef %6, i32 noundef 0)
  store i32 %37, ptr %8, align 4
  %38 = load i32, ptr %8, align 4
  %39 = icmp ne i32 %38, 0
  br i1 %39, label %40, label %52

40:                                               ; preds = %25
  %41 = load ptr, ptr %4, align 8
  %42 = getelementptr inbounds nuw %struct.persist_conn_t, ptr %41, i32 0, i32 6
  %43 = load ptr, ptr %42, align 8
  %44 = load ptr, ptr %4, align 8
  %45 = getelementptr inbounds nuw %struct.persist_conn_t, ptr %44, i32 0, i32 14
  %46 = load ptr, ptr %45, align 8
  %47 = load ptr, ptr %4, align 8
  %48 = getelementptr inbounds nuw %struct.persist_conn_t, ptr %47, i32 0, i32 15
  %49 = load i16, ptr %48, align 8
  %50 = zext i16 %49 to i32
  %51 = call i32 (ptr, ...) @error(ptr noundef @.str.147, ptr noundef %43, ptr noundef %46, i32 noundef %50)
  br label %61

52:                                               ; preds = %25
  %53 = getelementptr inbounds nuw %struct.slurm_msg, ptr %6, i32 0, i32 16
  %54 = load i16, ptr %53, align 4
  %55 = zext i16 %54 to i32
  %56 = getelementptr inbounds nuw %struct.slurm_msg, ptr %6, i32 0, i32 13
  %57 = load ptr, ptr %56, align 8
  %58 = call i32 @slurm_get_return_code(i32 noundef %55, ptr noundef %57)
  store i32 %58, ptr %8, align 4
  %59 = getelementptr inbounds nuw %struct.slurm_msg, ptr %6, i32 0, i32 13
  %60 = load ptr, ptr %59, align 8
  call void @slurm_free_return_code_msg(ptr noundef %60)
  br label %61

61:                                               ; preds = %52, %40
  %62 = load i32, ptr %8, align 4
  call void @llvm.lifetime.end.p0(i64 4, ptr %8) #10
  call void @llvm.lifetime.end.p0(i64 16, ptr %7) #10
  call void @llvm.lifetime.end.p0(i64 424, ptr %6) #10
  call void @llvm.lifetime.end.p0(i64 424, ptr %5) #10
  ret i32 %62
}