; Function Attrs: nounwind uwtable
define dso_local i32 @slurmdb_send_accounting_update_persist(ptr noundef %0, ptr noundef %1) local_unnamed_addr #0 {
  %3 = alloca %struct.slurm_msg, align 8
  %4 = alloca %struct.slurm_msg, align 8
  %5 = alloca %struct.accounting_update_msg_t, align 8
  call void @llvm.lifetime.start.p0(i64 424, ptr nonnull %3) #19
  call void @llvm.lifetime.start.p0(i64 424, ptr nonnull %4) #19
  call void @llvm.lifetime.start.p0(i64 16, ptr nonnull %5) #19
  %6 = getelementptr inbounds nuw i8, ptr %5, i64 8
  store i64 0, ptr %6, align 8
  %7 = getelementptr inbounds nuw i8, ptr %1, i64 60
  %8 = load i32, ptr %7, align 4
  %9 = icmp eq i32 %8, -2
  br i1 %9, label %10, label %16

10:                                               ; preds = %2
  %11 = tail call i32 @slurm_persist_conn_open(ptr noundef nonnull %1) #19
  %.not = icmp eq i32 %11, 0
  br i1 %.not, label %16, label %12

12:                                               ; preds = %10
  %13 = getelementptr inbounds nuw i8, ptr %1, i64 40
  %14 = load ptr, ptr %13, align 8
  %15 = tail call i32 (ptr, ...) @error(ptr noundef nonnull @.str.146, ptr noundef %14) #19
  store i32 -2, ptr %7, align 4
  br label %16

16:                                               ; preds = %10, %12, %2
  store ptr %0, ptr %5, align 8
  %17 = getelementptr inbounds nuw i8, ptr %1, i64 168
  %18 = load i16, ptr %17, align 8
  %19 = getelementptr inbounds nuw i8, ptr %3, i64 214
  store i16 %18, ptr %19, align 2
  %20 = getelementptr inbounds nuw i8, ptr %5, i64 8
  store i16 %18, ptr %20, align 8
  call void @slurm_msg_t_init(ptr noundef nonnull %3) #19
  %21 = getelementptr inbounds nuw i8, ptr %3, i64 212
  store i16 10001, ptr %21, align 4
  %22 = getelementptr inbounds nuw i8, ptr %3, i64 176
  store ptr %1, ptr %22, align 8
  %23 = getelementptr inbounds nuw i8, ptr %3, i64 200
  store ptr %5, ptr %23, align 8
  %24 = call i32 @slurm_send_recv_msg(i32 noundef 0, ptr noundef nonnull %3, ptr noundef nonnull %4, i32 noundef 0) #19
  %.not12 = icmp eq i32 %24, 0
  br i1 %.not12, label %34, label %25

25:                                               ; preds = %16
  %26 = getelementptr inbounds nuw i8, ptr %1, i64 40
  %27 = load ptr, ptr %26, align 8
  %28 = getelementptr inbounds nuw i8, ptr %1, i64 80
  %29 = load ptr, ptr %28, align 8
  %30 = getelementptr inbounds nuw i8, ptr %1, i64 88
  %31 = load i16, ptr %30, align 8
  %32 = zext i16 %31 to i32
  %33 = call i32 (ptr, ...) @error(ptr noundef nonnull @.str.147, ptr noundef %27, ptr noundef %29, i32 noundef %32) #19
  br label %42

34:                                               ; preds = %16
  %35 = getelementptr inbounds nuw i8, ptr %4, i64 212
  %36 = load i16, ptr %35, align 4
  %37 = zext i16 %36 to i32
  %38 = getelementptr inbounds nuw i8, ptr %4, i64 200
  %39 = load ptr, ptr %38, align 8
  %40 = call i32 @slurm_get_return_code(i32 noundef %37, ptr noundef %39) #19
  %41 = load ptr, ptr %38, align 8
  call void @slurm_free_return_code_msg(ptr noundef %41) #19
  br label %42

42:                                               ; preds = %34, %25
  %.0 = phi i32 [ %24, %25 ], [ %40, %34 ]
  call void @llvm.lifetime.end.p0(i64 16, ptr nonnull %5) #19
  call void @llvm.lifetime.end.p0(i64 424, ptr nonnull %4) #19
  call void @llvm.lifetime.end.p0(i64 424, ptr nonnull %3) #19
  ret i32 %.0
}